target datalayout = "e-m:e-p270:32:32-p271:32:32-p272:64:64-i64:64-i128:128-f80:128-n8:16:32:64-S128"
target triple = "x86_64-pc-linux-gnu"

%"class.llvm::Register" = type { i32 }
%"class.llvm::MachineInstr" = type <{ %"class.llvm::ilist_node_with_parent", ptr, ptr, ptr, [3 x i8], %"class.llvm::ArrayRecycler<llvm::MachineOperand>::Capacity", i32, %"class.llvm::PointerSumType", %"class.llvm::DebugLoc", i32, i16, [2 x i8] }>
%"class.llvm::ilist_node_with_parent" = type { %"class.llvm::ilist_node" }
%"class.llvm::ilist_node" = type { %"class.llvm::ilist_node_impl" }
%"class.llvm::ilist_node_impl" = type { %"class.llvm::ilist_node_base" }
%"class.llvm::ilist_node_base" = type { %"class.llvm::ilist_detail::node_base_prevnext" }
%"class.llvm::ilist_detail::node_base_prevnext" = type { %"class.llvm::PointerIntPair", ptr }
%"class.llvm::PointerIntPair" = type { %"struct.llvm::detail::PunnedPointer" }
%"struct.llvm::detail::PunnedPointer" = type { [8 x i8] }
%"class.llvm::ArrayRecycler<llvm::MachineOperand>::Capacity" = type { i8 }
%"class.llvm::PointerSumType" = type { %"union.llvm::PointerSumType<llvm::MachineInstr::ExtraInfoInlineKinds, llvm::PointerSumTypeMember<0, llvm::MachineMemOperand *>, llvm::PointerSumTypeMember<1, llvm::MCSymbol *>, llvm::PointerSumTypeMember<2, llvm::MCSymbol *>, llvm::PointerSumTypeMember<3, llvm::MachineInstr::ExtraInfo *>>::StorageT" }
%"union.llvm::PointerSumType<llvm::MachineInstr::ExtraInfoInlineKinds, llvm::PointerSumTypeMember<0, llvm::MachineMemOperand *>, llvm::PointerSumTypeMember<1, llvm::MCSymbol *>, llvm::PointerSumTypeMember<2, llvm::MCSymbol *>, llvm::PointerSumTypeMember<3, llvm::MachineInstr::ExtraInfo *>>::StorageT" = type { i64 }
%"class.llvm::DebugLoc" = type { %"class.llvm::TypedTrackingMDRef" }
%"class.llvm::TypedTrackingMDRef" = type { %"class.llvm::TrackingMDRef" }
%"class.llvm::TrackingMDRef" = type { ptr }

; Function Attrs: mustprogress nounwind uwtable
define linkonce_odr hidden noundef i32 @_ZNK4llvm12MachineInstr9getOpcodeEv(ptr noundef nonnull align 8 dereferenceable(70) %0) #0 comdat align 2 {
  %2 = alloca ptr, align 8
  store ptr %0, ptr %2, align 8
  %3 = load ptr, ptr %2, align 8
  %4 = getelementptr inbounds nuw %"class.llvm::MachineInstr", ptr %3, i32 0, i32 10
  %5 = load i16, ptr %4, align 4
  %6 = zext i16 %5 to i32
  ret i32 %6
}

; Function Attrs: mustprogress nounwind uwtable
define linkonce_odr hidden noundef zeroext i1 @_ZNK4llvm12MachineInstr15definesRegisterENS_8RegisterEPKNS_18TargetRegisterInfoE(ptr noundef nonnull align 8 dereferenceable(70) %0, i32 %1, ptr noundef %2) #0 comdat align 2 {
  %4 = alloca %"class.llvm::Register", align 4
  %5 = alloca ptr, align 8
  %6 = alloca ptr, align 8
  %7 = alloca %"class.llvm::Register", align 4
  %8 = getelementptr inbounds nuw %"class.llvm::Register", ptr %4, i32 0, i32 0
  store i32 %1, ptr %8, align 4
  store ptr %0, ptr %5, align 8
  store ptr %2, ptr %6, align 8
  %9 = load ptr, ptr %5, align 8
  call void @llvm.memcpy.p0.p0.i64(ptr align 4 %7, ptr align 4 %4, i64 4, i1 false)
  %10 = load ptr, ptr %6, align 8
  %11 = getelementptr inbounds nuw %"class.llvm::Register", ptr %7, i32 0, i32 0
  %12 = load i32, ptr %11, align 4
  %13 = call noundef i32 @_ZNK4llvm12MachineInstr25findRegisterDefOperandIdxENS_8RegisterEPKNS_18TargetRegisterInfoEbb(ptr noundef nonnull align 8 dereferenceable(70) %9, i32 %12, ptr noundef %10, i1 noundef zeroext false, i1 noundef zeroext false)
  %14 = icmp ne i32 %13, -1
  ret i1 %14
}

; Function Attrs: mustprogress nounwind uwtable
define linkonce_odr hidden void @_ZN4llvm8RegisterC2Ej(ptr noundef nonnull align 4 dereferenceable(4) %0, i32 noundef %1) unnamed_addr #0 comdat align 2 {
  %3 = alloca ptr, align 8
  %4 = alloca i32, align 4
  store ptr %0, ptr %3, align 8
  store i32 %1, ptr %4, align 4
  %5 = load ptr, ptr %3, align 8
  %6 = getelementptr inbounds nuw %"class.llvm::Register", ptr %5, i32 0, i32 0
  %7 = load i32, ptr %4, align 4
  store i32 %7, ptr %6, align 4
  ret void
}

; Function Attrs: mustprogress nounwind uwtable
define internal noundef i32 @_ZL26convertToNonFlagSettingOpcRKN4llvm12MachineInstrE(ptr noundef nonnull align 8 dereferenceable(70) %0) #0 {
  %2 = alloca i32, align 4
  %3 = alloca ptr, align 8
  %4 = alloca i8, align 1
  %5 = alloca %"class.llvm::Register", align 4
  %6 = alloca %"class.llvm::Register", align 4
  store ptr %0, ptr %3, align 8
  store i8 0, ptr %4, align 1
  %7 = load ptr, ptr %3, align 8
  call void @_ZN4llvm8RegisterC2Ej(ptr noundef nonnull align 4 dereferenceable(4) %5, i32 noundef 11)
  %8 = getelementptr inbounds nuw %"class.llvm::Register", ptr %5, i32 0, i32 0
  %9 = load i32, ptr %8, align 4
  %10 = call noundef zeroext i1 @_ZNK4llvm12MachineInstr15definesRegisterENS_8RegisterEPKNS_18TargetRegisterInfoE(ptr noundef nonnull align 8 dereferenceable(70) %7, i32 %9, ptr noundef null)
  br i1 %10, label %16, label %11

11:                                               ; preds = %1
  %12 = load ptr, ptr %3, align 8
  call void @_ZN4llvm8RegisterC2Ej(ptr noundef nonnull align 4 dereferenceable(4) %6, i32 noundef 12)
  %13 = getelementptr inbounds nuw %"class.llvm::Register", ptr %6, i32 0, i32 0
  %14 = load i32, ptr %13, align 4
  %15 = call noundef zeroext i1 @_ZNK4llvm12MachineInstr15definesRegisterENS_8RegisterEPKNS_18TargetRegisterInfoE(ptr noundef nonnull align 8 dereferenceable(70) %12, i32 %14, ptr noundef null)
  br i1 %15, label %16, label %17

16:                                               ; preds = %11, %1
  store i8 1, ptr %4, align 1
  br label %17

17:                                               ; preds = %16, %11
  %18 = load ptr, ptr %3, align 8
  %19 = call noundef i32 @_ZNK4llvm12MachineInstr9getOpcodeEv(ptr noundef nonnull align 8 dereferenceable(70) %18)
  switch i32 %19, label %20 [
    i32 302, label %23
    i32 1447, label %24
    i32 1448, label %28
    i32 1449, label %32
    i32 303, label %33
    i32 1450, label %34
    i32 1451, label %38
    i32 1452, label %42
    i32 1174, label %43
    i32 6851, label %44
    i32 6852, label %48
    i32 6853, label %52
    i32 1175, label %53
    i32 6854, label %54
    i32 6855, label %58
    i32 6856, label %62
  ]

20:                                               ; preds = %17
  %21 = load ptr, ptr %3, align 8
  %22 = call noundef i32 @_ZNK4llvm12MachineInstr9getOpcodeEv(ptr noundef nonnull align 8 dereferenceable(70) %21)
  store i32 %22, ptr %2, align 4
  br label %63

23:                                               ; preds = %17
  store i32 306, ptr %2, align 4
  br label %63

24:                                               ; preds = %17
  %25 = load i8, ptr %4, align 1
  %26 = trunc i8 %25 to i1
  %27 = select i1 %26, i32 1447, i32 1462
  store i32 %27, ptr %2, align 4
  br label %63

28:                                               ; preds = %17
  %29 = load i8, ptr %4, align 1
  %30 = trunc i8 %29 to i1
  %31 = select i1 %30, i32 1448, i32 1463
  store i32 %31, ptr %2, align 4
  br label %63

32:                                               ; preds = %17
  store i32 1464, ptr %2, align 4
  br label %63

33:                                               ; preds = %17
  store i32 307, ptr %2, align 4
  br label %63

34:                                               ; preds = %17
  %35 = load i8, ptr %4, align 1
  %36 = trunc i8 %35 to i1
  %37 = select i1 %36, i32 1450, i32 1465
  store i32 %37, ptr %2, align 4
  br label %63

38:                                               ; preds = %17
  %39 = load i8, ptr %4, align 1
  %40 = trunc i8 %39 to i1
  %41 = select i1 %40, i32 1451, i32 1466
  store i32 %41, ptr %2, align 4
  br label %63

42:                                               ; preds = %17
  store i32 1467, ptr %2, align 4
  br label %63

43:                                               ; preds = %17
  store i32 1176, ptr %2, align 4
  br label %63

44:                                               ; preds = %17
  %45 = load i8, ptr %4, align 1
  %46 = trunc i8 %45 to i1
  %47 = select i1 %46, i32 6851, i32 6858
  store i32 %47, ptr %2, align 4
  br label %63

48:                                               ; preds = %17
  %49 = load i8, ptr %4, align 1
  %50 = trunc i8 %49 to i1
  %51 = select i1 %50, i32 6852, i32 6859
  store i32 %51, ptr %2, align 4
  br label %63

52:                                               ; preds = %17
  store i32 6860, ptr %2, align 4
  br label %63

53:                                               ; preds = %17
  store i32 1177, ptr %2, align 4
  br label %63

54:                                               ; preds = %17
  %55 = load i8, ptr %4, align 1
  %56 = trunc i8 %55 to i1
  %57 = select i1 %56, i32 6854, i32 6861
  store i32 %57, ptr %2, align 4
  br label %63

58:                                               ; preds = %17
  %59 = load i8, ptr %4, align 1
  %60 = trunc i8 %59 to i1
  %61 = select i1 %60, i32 6855, i32 6862
  store i32 %61, ptr %2, align 4
  br label %63

62:                                               ; preds = %17
  store i32 6863, ptr %2, align 4
  br label %63

63:                                               ; preds = %62, %58, %54, %53, %52, %48, %44, %43, %42, %38, %34, %33, %32, %28, %24, %23, %20
  %64 = load i32, ptr %2, align 4
  ret i32 %64
}