; Function Attrs: mustprogress nounwind uwtable
define internal fastcc noundef range(i32 0, 65536) i32 @_ZL26convertToNonFlagSettingOpcRKN4llvm12MachineInstrE(ptr noundef nonnull align 8 dereferenceable(70) %0) unnamed_addr #1 {
  %2 = tail call noundef i32 @_ZNK4llvm12MachineInstr25findRegisterDefOperandIdxENS_8RegisterEPKNS_18TargetRegisterInfoEbb(ptr noundef nonnull align 8 dereferenceable(70) %0, i32 11, ptr noundef null, i1 noundef zeroext false, i1 noundef zeroext false) #27
  %.not = icmp eq i32 %2, -1
  br i1 %.not, label %3, label %5

3:                                                ; preds = %1
  %4 = tail call noundef i32 @_ZNK4llvm12MachineInstr25findRegisterDefOperandIdxENS_8RegisterEPKNS_18TargetRegisterInfoEbb(ptr noundef nonnull align 8 dereferenceable(70) %0, i32 12, ptr noundef null, i1 noundef zeroext false, i1 noundef zeroext false) #27
  %.not14 = icmp eq i32 %4, -1
  br i1 %.not14, label %6, label %5

5:                                                ; preds = %3, %1
  br label %6

6:                                                ; preds = %5, %3
  %.0 = phi i1 [ true, %5 ], [ false, %3 ]
  %7 = getelementptr inbounds nuw i8, ptr %0, i64 68
  %8 = load i16, ptr %7, align 4
  switch i16 %8, label %9 [
    i16 302, label %34
    i16 1447, label %11
    i16 1448, label %13
    i16 1449, label %15
    i16 303, label %16
    i16 1450, label %17
    i16 1451, label %19
    i16 1452, label %21
    i16 1174, label %22
    i16 6851, label %23
    i16 6852, label %25
    i16 6853, label %27
    i16 1175, label %28
    i16 6854, label %29
    i16 6855, label %31
    i16 6856, label %33
  ]

9:                                                ; preds = %6
  %10 = zext i16 %8 to i32
  br label %34

11:                                               ; preds = %6
  %12 = select i1 %.0, i32 1447, i32 1462
  br label %34

13:                                               ; preds = %6
  %14 = select i1 %.0, i32 1448, i32 1463
  br label %34

15:                                               ; preds = %6
  br label %34

16:                                               ; preds = %6
  br label %34

17:                                               ; preds = %6
  %18 = select i1 %.0, i32 1450, i32 1465
  br label %34

19:                                               ; preds = %6
  %20 = select i1 %.0, i32 1451, i32 1466
  br label %34

21:                                               ; preds = %6
  br label %34

22:                                               ; preds = %6
  br label %34

23:                                               ; preds = %6
  %24 = select i1 %.0, i32 6851, i32 6858
  br label %34

25:                                               ; preds = %6
  %26 = select i1 %.0, i32 6852, i32 6859
  br label %34

27:                                               ; preds = %6
  br label %34

28:                                               ; preds = %6
  br label %34

29:                                               ; preds = %6
  %30 = select i1 %.0, i32 6854, i32 6861
  br label %34

31:                                               ; preds = %6
  %32 = select i1 %.0, i32 6855, i32 6862
  br label %34

33:                                               ; preds = %6
  br label %34

34:                                               ; preds = %6, %33, %31, %29, %28, %27, %25, %23, %22, %21, %19, %17, %16, %15, %13, %11, %9
  %.012 = phi i32 [ %10, %9 ], [ 6863, %33 ], [ %32, %31 ], [ %30, %29 ], [ 1177, %28 ], [ 6860, %27 ], [ %26, %25 ], [ %24, %23 ], [ 1176, %22 ], [ 1467, %21 ], [ %20, %19 ], [ %18, %17 ], [ 307, %16 ], [ 1464, %15 ], [ %14, %13 ], [ %12, %11 ], [ 306, %6 ]
  ret i32 %.012
}